
a.out:     file format elf32-tradbigmips

Sections:
Idx Name          Size      VMA       LMA       File off  Algn
  0 .text         000000e0  00000000  00000000  00000074  2**2
                  CONTENTS, ALLOC, LOAD, READONLY, CODE
  1 .data         00000bb8  00001000  00001000  00001074  2**0
                  CONTENTS, ALLOC, LOAD, DATA
  2 .ktext        00000234  80000080  80000080  00001c2c  2**0
                  CONTENTS, ALLOC, LOAD, READONLY, CODE
  3 .bss          00000000  800002b4  800002b4  00001e60  2**0
                  ALLOC
  4 .kdata        00000028  80001000  80001000  00001e60  2**2
                  CONTENTS, READONLY
  5 .reginfo      00000018  00000000  00000000  00001e88  2**2
                  CONTENTS, READONLY, LINK_ONCE_SAME_SIZE
  6 .pdr          00000000  00000000  00000000  00001ea0  2**2
                  CONTENTS, READONLY
SYMBOL TABLE:
00000000 l    d  .text	00000000 .text
00001000 l    d  .data	00000000 .data
80000080 l    d  .ktext	00000000 .ktext
800002b4 l    d  .bss	00000000 .bss
80001000 l    d  .kdata	00000000 .kdata
00000000 l    d  .reginfo	00000000 .reginfo
00000000 l    d  .pdr	00000000 .pdr
00000000 l    d  *ABS*	00000000 .shstrtab
00000000 l    d  *ABS*	00000000 .symtab
00000000 l    d  *ABS*	00000000 .strtab
00001000 l       .data	00000000 glob1
000013e8 l       .data	00000000 glob2
000017d0 l       .data	00000000 glob3
00000000 l       .text	00000000 main
0000003c l       .text	00000000 proc1
0000005c l       .text	00000000 reset1
00000070 l       .text	00000000 proc2
00000090 l       .text	00000000 reset2
000000a8 l       .text	00000000 proc3
000000c8 l       .text	00000000 reset3
80001000 l       .kdata	00000000 curpcb
80001004 l       .kdata	00000000 pcb1
80001010 l       .kdata	00000000 pcb2
8000101c l       .kdata	00000000 pcb3
80000080 l       .ktext	00000000 kernel
80000274 l       .ktext	00000000 output
800002ac l       .ktext	00000000 kernel_loop
800000b8 l       .ktext	00000000 interrupt_reset
800000c8 l       .ktext	00000000 store_pcb
800000ec l       .ktext	00000000 store_registers
80000158 l       .ktext	00000000 pcb_check
80000164 l       .ktext	00000000 if_pcb1
80000194 l       .ktext	00000000 nextpcb2
80000174 l       .ktext	00000000 if_pcb2
800001b0 l       .ktext	00000000 nextpcb3
80000184 l       .ktext	00000000 if_pcb3
800001cc l       .ktext	00000000 nextpcb1
800001e8 l       .ktext	00000000 nextpcb
800001f8 l       .ktext	00000000 load_registers
80000264 l       .ktext	00000000 return1
80000298 l       .ktext	00000000 return2
00000000 g       *ABS*	00000000 __start


Contents of section .text:
 0000 3c08ffff 35080010 24090000 ad090004  <...5...$.......
 0010 2409003f ad090008 24090029 ad090000  $..?....$..)....
 0020 3c08ffff 24090002 ad090000 24080c03  <...$.......$...
 0030 40886000 3c1c0000 279c1000 83840000  @.`.<...'.......
 0040 24020102 0000000c 00000000 2408005a  $...........$..Z
 0050 14880002 00000000 34040040 24840001  ........4..@$...
 0060 00000000 00000000 0800000f a3840000  ................
 0070 83840000 24020102 0000000c 00000000  ....$...........
 0080 24080039 14880002 00000000 2404002f  $..9........$../
 0090 00000000 24840001 00000000 00000000  ....$...........
 00a0 0800001c a3840000 83840000 24020102  ............$...
 00b0 0000000c 00000000 2408007a 14880002  ........$..z....
 00c0 00000000 24040060 00000000 24840001  ....$..`....$...
 00d0 00000000 00000000 0800002a a3840000  ...........*....
Contents of section .data:
 1000 41000000 00000000 00000000 00000000  A...............
 1010 00000000 00000000 00000000 00000000  ................
 1020 00000000 00000000 00000000 00000000  ................
 1030 00000000 00000000 00000000 00000000  ................
 1040 00000000 00000000 00000000 00000000  ................
 1050 00000000 00000000 00000000 00000000  ................
 1060 00000000 00000000 00000000 00000000  ................
 1070 00000000 00000000 00000000 00000000  ................
 1080 00000000 00000000 00000000 00000000  ................
 1090 00000000 00000000 00000000 00000000  ................
 10a0 00000000 00000000 00000000 00000000  ................
 10b0 00000000 00000000 00000000 00000000  ................
 10c0 00000000 00000000 00000000 00000000  ................
 10d0 00000000 00000000 00000000 00000000  ................
 10e0 00000000 00000000 00000000 00000000  ................
 10f0 00000000 00000000 00000000 00000000  ................
 1100 00000000 00000000 00000000 00000000  ................
 1110 00000000 00000000 00000000 00000000  ................
 1120 00000000 00000000 00000000 00000000  ................
 1130 00000000 00000000 00000000 00000000  ................
 1140 00000000 00000000 00000000 00000000  ................
 1150 00000000 00000000 00000000 00000000  ................
 1160 00000000 00000000 00000000 00000000  ................
 1170 00000000 00000000 00000000 00000000  ................
 1180 00000000 00000000 00000000 00000000  ................
 1190 00000000 00000000 00000000 00000000  ................
 11a0 00000000 00000000 00000000 00000000  ................
 11b0 00000000 00000000 00000000 00000000  ................
 11c0 00000000 00000000 00000000 00000000  ................
 11d0 00000000 00000000 00000000 00000000  ................
 11e0 00000000 00000000 00000000 00000000  ................
 11f0 00000000 00000000 00000000 00000000  ................
 1200 00000000 00000000 00000000 00000000  ................
 1210 00000000 00000000 00000000 00000000  ................
 1220 00000000 00000000 00000000 00000000  ................
 1230 00000000 00000000 00000000 00000000  ................
 1240 00000000 00000000 00000000 00000000  ................
 1250 00000000 00000000 00000000 00000000  ................
 1260 00000000 00000000 00000000 00000000  ................
 1270 00000000 00000000 00000000 00000000  ................
 1280 00000000 00000000 00000000 00000000  ................
 1290 00000000 00000000 00000000 00000000  ................
 12a0 00000000 00000000 00000000 00000000  ................
 12b0 00000000 00000000 00000000 00000000  ................
 12c0 00000000 00000000 00000000 00000000  ................
 12d0 00000000 00000000 00000000 00000000  ................
 12e0 00000000 00000000 00000000 00000000  ................
 12f0 00000000 00000000 00000000 00000000  ................
 1300 00000000 00000000 00000000 00000000  ................
 1310 00000000 00000000 00000000 00000000  ................
 1320 00000000 00000000 00000000 00000000  ................
 1330 00000000 00000000 00000000 00000000  ................
 1340 00000000 00000000 00000000 00000000  ................
 1350 00000000 00000000 00000000 00000000  ................
 1360 00000000 00000000 00000000 00000000  ................
 1370 00000000 00000000 00000000 00000000  ................
 1380 00000000 00000000 00000000 00000000  ................
 1390 00000000 00000000 00000000 00000000  ................
 13a0 00000000 00000000 00000000 00000000  ................
 13b0 00000000 00000000 00000000 00000000  ................
 13c0 00000000 00000000 00000000 00000000  ................
 13d0 00000000 00000000 00000000 00000000  ................
 13e0 00000000 00000000 30000000 00000000  ........0.......
 13f0 00000000 00000000 00000000 00000000  ................
 1400 00000000 00000000 00000000 00000000  ................
 1410 00000000 00000000 00000000 00000000  ................
 1420 00000000 00000000 00000000 00000000  ................
 1430 00000000 00000000 00000000 00000000  ................
 1440 00000000 00000000 00000000 00000000  ................
 1450 00000000 00000000 00000000 00000000  ................
 1460 00000000 00000000 00000000 00000000  ................
 1470 00000000 00000000 00000000 00000000  ................
 1480 00000000 00000000 00000000 00000000  ................
 1490 00000000 00000000 00000000 00000000  ................
 14a0 00000000 00000000 00000000 00000000  ................
 14b0 00000000 00000000 00000000 00000000  ................
 14c0 00000000 00000000 00000000 00000000  ................
 14d0 00000000 00000000 00000000 00000000  ................
 14e0 00000000 00000000 00000000 00000000  ................
 14f0 00000000 00000000 00000000 00000000  ................
 1500 00000000 00000000 00000000 00000000  ................
 1510 00000000 00000000 00000000 00000000  ................
 1520 00000000 00000000 00000000 00000000  ................
 1530 00000000 00000000 00000000 00000000  ................
 1540 00000000 00000000 00000000 00000000  ................
 1550 00000000 00000000 00000000 00000000  ................
 1560 00000000 00000000 00000000 00000000  ................
 1570 00000000 00000000 00000000 00000000  ................
 1580 00000000 00000000 00000000 00000000  ................
 1590 00000000 00000000 00000000 00000000  ................
 15a0 00000000 00000000 00000000 00000000  ................
 15b0 00000000 00000000 00000000 00000000  ................
 15c0 00000000 00000000 00000000 00000000  ................
 15d0 00000000 00000000 00000000 00000000  ................
 15e0 00000000 00000000 00000000 00000000  ................
 15f0 00000000 00000000 00000000 00000000  ................
 1600 00000000 00000000 00000000 00000000  ................
 1610 00000000 00000000 00000000 00000000  ................
 1620 00000000 00000000 00000000 00000000  ................
 1630 00000000 00000000 00000000 00000000  ................
 1640 00000000 00000000 00000000 00000000  ................
 1650 00000000 00000000 00000000 00000000  ................
 1660 00000000 00000000 00000000 00000000  ................
 1670 00000000 00000000 00000000 00000000  ................
 1680 00000000 00000000 00000000 00000000  ................
 1690 00000000 00000000 00000000 00000000  ................
 16a0 00000000 00000000 00000000 00000000  ................
 16b0 00000000 00000000 00000000 00000000  ................
 16c0 00000000 00000000 00000000 00000000  ................
 16d0 00000000 00000000 00000000 00000000  ................
 16e0 00000000 00000000 00000000 00000000  ................
 16f0 00000000 00000000 00000000 00000000  ................
 1700 00000000 00000000 00000000 00000000  ................
 1710 00000000 00000000 00000000 00000000  ................
 1720 00000000 00000000 00000000 00000000  ................
 1730 00000000 00000000 00000000 00000000  ................
 1740 00000000 00000000 00000000 00000000  ................
 1750 00000000 00000000 00000000 00000000  ................
 1760 00000000 00000000 00000000 00000000  ................
 1770 00000000 00000000 00000000 00000000  ................
 1780 00000000 00000000 00000000 00000000  ................
 1790 00000000 00000000 00000000 00000000  ................
 17a0 00000000 00000000 00000000 00000000  ................
 17b0 00000000 00000000 00000000 00000000  ................
 17c0 00000000 00000000 00000000 00000000  ................
 17d0 61000000 00000000 00000000 00000000  a...............
 17e0 00000000 00000000 00000000 00000000  ................
 17f0 00000000 00000000 00000000 00000000  ................
 1800 00000000 00000000 00000000 00000000  ................
 1810 00000000 00000000 00000000 00000000  ................
 1820 00000000 00000000 00000000 00000000  ................
 1830 00000000 00000000 00000000 00000000  ................
 1840 00000000 00000000 00000000 00000000  ................
 1850 00000000 00000000 00000000 00000000  ................
 1860 00000000 00000000 00000000 00000000  ................
 1870 00000000 00000000 00000000 00000000  ................
 1880 00000000 00000000 00000000 00000000  ................
 1890 00000000 00000000 00000000 00000000  ................
 18a0 00000000 00000000 00000000 00000000  ................
 18b0 00000000 00000000 00000000 00000000  ................
 18c0 00000000 00000000 00000000 00000000  ................
 18d0 00000000 00000000 00000000 00000000  ................
 18e0 00000000 00000000 00000000 00000000  ................
 18f0 00000000 00000000 00000000 00000000  ................
 1900 00000000 00000000 00000000 00000000  ................
 1910 00000000 00000000 00000000 00000000  ................
 1920 00000000 00000000 00000000 00000000  ................
 1930 00000000 00000000 00000000 00000000  ................
 1940 00000000 00000000 00000000 00000000  ................
 1950 00000000 00000000 00000000 00000000  ................
 1960 00000000 00000000 00000000 00000000  ................
 1970 00000000 00000000 00000000 00000000  ................
 1980 00000000 00000000 00000000 00000000  ................
 1990 00000000 00000000 00000000 00000000  ................
 19a0 00000000 00000000 00000000 00000000  ................
 19b0 00000000 00000000 00000000 00000000  ................
 19c0 00000000 00000000 00000000 00000000  ................
 19d0 00000000 00000000 00000000 00000000  ................
 19e0 00000000 00000000 00000000 00000000  ................
 19f0 00000000 00000000 00000000 00000000  ................
 1a00 00000000 00000000 00000000 00000000  ................
 1a10 00000000 00000000 00000000 00000000  ................
 1a20 00000000 00000000 00000000 00000000  ................
 1a30 00000000 00000000 00000000 00000000  ................
 1a40 00000000 00000000 00000000 00000000  ................
 1a50 00000000 00000000 00000000 00000000  ................
 1a60 00000000 00000000 00000000 00000000  ................
 1a70 00000000 00000000 00000000 00000000  ................
 1a80 00000000 00000000 00000000 00000000  ................
 1a90 00000000 00000000 00000000 00000000  ................
 1aa0 00000000 00000000 00000000 00000000  ................
 1ab0 00000000 00000000 00000000 00000000  ................
 1ac0 00000000 00000000 00000000 00000000  ................
 1ad0 00000000 00000000 00000000 00000000  ................
 1ae0 00000000 00000000 00000000 00000000  ................
 1af0 00000000 00000000 00000000 00000000  ................
 1b00 00000000 00000000 00000000 00000000  ................
 1b10 00000000 00000000 00000000 00000000  ................
 1b20 00000000 00000000 00000000 00000000  ................
 1b30 00000000 00000000 00000000 00000000  ................
 1b40 00000000 00000000 00000000 00000000  ................
 1b50 00000000 00000000 00000000 00000000  ................
 1b60 00000000 00000000 00000000 00000000  ................
 1b70 00000000 00000000 00000000 00000000  ................
 1b80 00000000 00000000 00000000 00000000  ................
 1b90 00000000 00000000 00000000 00000000  ................
 1ba0 00000000 00000000 00000000 00000000  ................
 1bb0 00000000 00000000                    ........        
Contents of section .ktext:
 80000080 401a6800 00000000 001ade40 001bdec2  @.h........@....
 80000090 17600078 00000000 001adbc0 001bde42  .`.x...........B
 800000a0 341a0002 137a0081 00000000 341a0001  4....z......4...
 800000b0 177a007e 00000000 3c1affff 375a0010  .z.~....<...7Z..
 800000c0 241b0029 af5b0000 3c1a8000 275a1000  $..).[..<...'Z..
 800000d0 8f5b0000 401a7000 00000000 af7a0000  .[..@.p......z..
 800000e0 af7c0004 af7d0008 27bdff94 afde0068  .|...}..'......h
 800000f0 afdf0064 afa80060 afa9005c afaa0058  ...d...`...\...X
 80000100 afab0054 afac0050 afad004c afae0048  ...T...P...L...H
 80000110 afaf0044 afb80040 afb9003c afb00038  ...D...@...<...8
 80000120 afb10034 afb20030 afb3002c afb40028  ...4...0...,...(
 80000130 afb50024 afb60020 afb7001c afa40018  ...$... ........
 80000140 afa50014 afa60010 afa7000c afa20008  ................
 80000150 afa30004 afa10000 3c1a8000 275a1000  ........<...'Z..
 80000160 8f5b0000 3c1a8000 275a1004 135b0009  .[..<...'Z...[..
 80000170 00000000 3c1a8000 275a1010 135b000c  ....<...'Z...[..
 80000180 00000000 3c1a8000 275a101c 135b000f  ....<...'Z...[..
 80000190 00000000 3c1b8000 277b1000 3c1a8000  ....<...'{..<...
 800001a0 275a1010 af7a0000 1000000f 00000000  'Z...z..........
 800001b0 3c1b8000 277b1000 3c1a8000 275a101c  <...'{..<...'Z..
 800001c0 af7a0000 10000008 00000000 3c1b8000  .z..........<...
 800001d0 277b1000 3c1a8000 275a1004 af7a0000  '{..<...'Z...z..
 800001e0 10000001 00000000 8f5d0008 00000000  .........]......
 800001f0 27bdff94 8f5c0004 8fbe0068 8fbf0064  '....\.....h...d
 80000200 8fa80060 8fa9005c 8faa0058 8fab0054  ...`...\...X...T
 80000210 8fac0050 8fad004c 8fae0048 8faf0044  ...P...L...H...D
 80000220 8fb80040 8fb9003c 8fb00038 8fb10034  ...@...<...8...4
 80000230 8fb20030 8fb3002c 8fb40028 8fb50024  ...0...,...(...$
 80000240 8fb60020 8fb7001c 8fa40018 8fa50014  ... ............
 80000250 8fa60010 8fa7000c 8fa20008 8fa30004  ................
 80000260 8fa10000 8f5b0000 00000000 03600008  .....[.......`..
 80000270 42000010 341a0008 177a000c 00000000  B...4....z......
 80000280 341b0102 145b0004 00000000 3c1affff  4....[......<...
 80000290 375a0000 a3440008 401a7000 00000000  7Z...D..@.p.....
 800002a0 275a0004 03400008 42000010 1000ffff  'Z...@..B.......
 800002b0 00000000                             ....            
Contents of section .kdata:
 80001000 80001004 00000000 00000000 00000000  ................
 80001010 00000070 000013e8 7fffbf94 000000a8  ...p............
 80001020 000017d0 7fff7f94                    ........        
Contents of section .reginfo:
 0000 fffffffe 00000000 00000000 00000000  ................
 0010 00000000 00000000                    ........        
Disassembly of section .text:

00000000 <main>:
   0:	3c08ffff 	lui	t0,0xffff
   4:	35080010 	ori	t0,t0,0x10
   8:	24090000 	li	t1,0
   c:	ad090004 	sw	t1,4(t0)
  10:	2409003f 	li	t1,63
  14:	ad090008 	sw	t1,8(t0)
  18:	24090029 	li	t1,41
  1c:	ad090000 	sw	t1,0(t0)
  20:	3c08ffff 	lui	t0,0xffff
  24:	24090002 	li	t1,2
  28:	ad090000 	sw	t1,0(t0)
  2c:	24080c03 	li	t0,3075
  30:	40886000 	mtc0	t0,$12
  34:	3c1c0000 	lui	gp,0x0
  38:	279c1000 	addiu	gp,gp,4096

0000003c <proc1>:
  3c:	83840000 	lb	a0,0(gp)
  40:	24020102 	li	v0,258
  44:	0000000c 	syscall
  48:	00000000 	nop
  4c:	2408005a 	li	t0,90
  50:	14880002 	bne	a0,t0,5c <reset1>
  54:	00000000 	nop
  58:	34040040 	li	a0,0x40

0000005c <reset1>:
  5c:	24840001 	addiu	a0,a0,1
  60:	00000000 	nop
  64:	00000000 	nop
  68:	0800000f 	j	3c <proc1>
  6c:	a3840000 	sb	a0,0(gp)

00000070 <proc2>:
  70:	83840000 	lb	a0,0(gp)
  74:	24020102 	li	v0,258
  78:	0000000c 	syscall
  7c:	00000000 	nop
  80:	24080039 	li	t0,57
  84:	14880002 	bne	a0,t0,90 <reset2>
  88:	00000000 	nop
  8c:	2404002f 	li	a0,47

00000090 <reset2>:
  90:	00000000 	nop
  94:	24840001 	addiu	a0,a0,1
  98:	00000000 	nop
  9c:	00000000 	nop
  a0:	0800001c 	j	70 <proc2>
  a4:	a3840000 	sb	a0,0(gp)

000000a8 <proc3>:
  a8:	83840000 	lb	a0,0(gp)
  ac:	24020102 	li	v0,258
  b0:	0000000c 	syscall
  b4:	00000000 	nop
  b8:	2408007a 	li	t0,122
  bc:	14880002 	bne	a0,t0,c8 <reset3>
  c0:	00000000 	nop
  c4:	24040060 	li	a0,96

000000c8 <reset3>:
  c8:	00000000 	nop
  cc:	24840001 	addiu	a0,a0,1
  d0:	00000000 	nop
  d4:	00000000 	nop
  d8:	0800002a 	j	a8 <proc3>
  dc:	a3840000 	sb	a0,0(gp)
Disassembly of section .ktext:

80000080 <kernel>:
80000080:	401a6800 	mfc0	k0,$13
80000084:	00000000 	nop
80000088:	001ade40 	sll	k1,k0,0x19
8000008c:	001bdec2 	srl	k1,k1,0x1b
80000090:	17600078 	bnez	k1,80000274 <output>
80000094:	00000000 	nop
80000098:	001adbc0 	sll	k1,k0,0xf
8000009c:	001bde42 	srl	k1,k1,0x19
800000a0:	341a0002 	li	k0,0x2
800000a4:	137a0081 	beq	k1,k0,800002ac <kernel_loop>
800000a8:	00000000 	nop
800000ac:	341a0001 	li	k0,0x1
800000b0:	177a007e 	bne	k1,k0,800002ac <kernel_loop>
800000b4:	00000000 	nop

800000b8 <interrupt_reset>:
800000b8:	3c1affff 	lui	k0,0xffff
800000bc:	375a0010 	ori	k0,k0,0x10
800000c0:	241b0029 	li	k1,41
800000c4:	af5b0000 	sw	k1,0(k0)

800000c8 <store_pcb>:
800000c8:	3c1a8000 	lui	k0,0x8000
800000cc:	275a1000 	addiu	k0,k0,4096
800000d0:	8f5b0000 	lw	k1,0(k0)
800000d4:	401a7000 	mfc0	k0,$14
800000d8:	00000000 	nop
800000dc:	af7a0000 	sw	k0,0(k1)
800000e0:	af7c0004 	sw	gp,4(k1)
800000e4:	af7d0008 	sw	sp,8(k1)
800000e8:	27bdff94 	addiu	sp,sp,-108

800000ec <store_registers>:
800000ec:	afde0068 	sw	s8,104(s8)
800000f0:	afdf0064 	sw	ra,100(s8)
800000f4:	afa80060 	sw	t0,96(sp)
800000f8:	afa9005c 	sw	t1,92(sp)
800000fc:	afaa0058 	sw	t2,88(sp)
80000100:	afab0054 	sw	t3,84(sp)
80000104:	afac0050 	sw	t4,80(sp)
80000108:	afad004c 	sw	t5,76(sp)
8000010c:	afae0048 	sw	t6,72(sp)
80000110:	afaf0044 	sw	t7,68(sp)
80000114:	afb80040 	sw	t8,64(sp)
80000118:	afb9003c 	sw	t9,60(sp)
8000011c:	afb00038 	sw	s0,56(sp)
80000120:	afb10034 	sw	s1,52(sp)
80000124:	afb20030 	sw	s2,48(sp)
80000128:	afb3002c 	sw	s3,44(sp)
8000012c:	afb40028 	sw	s4,40(sp)
80000130:	afb50024 	sw	s5,36(sp)
80000134:	afb60020 	sw	s6,32(sp)
80000138:	afb7001c 	sw	s7,28(sp)
8000013c:	afa40018 	sw	a0,24(sp)
80000140:	afa50014 	sw	a1,20(sp)
80000144:	afa60010 	sw	a2,16(sp)
80000148:	afa7000c 	sw	a3,12(sp)
8000014c:	afa20008 	sw	v0,8(sp)
80000150:	afa30004 	sw	v1,4(sp)
80000154:	afa10000 	sw	at,0(sp)

80000158 <pcb_check>:
80000158:	3c1a8000 	lui	k0,0x8000
8000015c:	275a1000 	addiu	k0,k0,4096
80000160:	8f5b0000 	lw	k1,0(k0)

80000164 <if_pcb1>:
80000164:	3c1a8000 	lui	k0,0x8000
80000168:	275a1004 	addiu	k0,k0,4100
8000016c:	135b0009 	beq	k0,k1,80000194 <nextpcb2>
80000170:	00000000 	nop

80000174 <if_pcb2>:
80000174:	3c1a8000 	lui	k0,0x8000
80000178:	275a1010 	addiu	k0,k0,4112
8000017c:	135b000c 	beq	k0,k1,800001b0 <nextpcb3>
80000180:	00000000 	nop

80000184 <if_pcb3>:
80000184:	3c1a8000 	lui	k0,0x8000
80000188:	275a101c 	addiu	k0,k0,4124
8000018c:	135b000f 	beq	k0,k1,800001cc <nextpcb1>
80000190:	00000000 	nop

80000194 <nextpcb2>:
80000194:	3c1b8000 	lui	k1,0x8000
80000198:	277b1000 	addiu	k1,k1,4096
8000019c:	3c1a8000 	lui	k0,0x8000
800001a0:	275a1010 	addiu	k0,k0,4112
800001a4:	af7a0000 	sw	k0,0(k1)
800001a8:	1000000f 	b	800001e8 <nextpcb>
800001ac:	00000000 	nop

800001b0 <nextpcb3>:
800001b0:	3c1b8000 	lui	k1,0x8000
800001b4:	277b1000 	addiu	k1,k1,4096
800001b8:	3c1a8000 	lui	k0,0x8000
800001bc:	275a101c 	addiu	k0,k0,4124
800001c0:	af7a0000 	sw	k0,0(k1)
800001c4:	10000008 	b	800001e8 <nextpcb>
800001c8:	00000000 	nop

800001cc <nextpcb1>:
800001cc:	3c1b8000 	lui	k1,0x8000
800001d0:	277b1000 	addiu	k1,k1,4096
800001d4:	3c1a8000 	lui	k0,0x8000
800001d8:	275a1004 	addiu	k0,k0,4100
800001dc:	af7a0000 	sw	k0,0(k1)
800001e0:	10000001 	b	800001e8 <nextpcb>
800001e4:	00000000 	nop

800001e8 <nextpcb>:
800001e8:	8f5d0008 	lw	sp,8(k0)
800001ec:	00000000 	nop
800001f0:	27bdff94 	addiu	sp,sp,-108
800001f4:	8f5c0004 	lw	gp,4(k0)

800001f8 <load_registers>:
800001f8:	8fbe0068 	lw	s8,104(sp)
800001fc:	8fbf0064 	lw	ra,100(sp)
80000200:	8fa80060 	lw	t0,96(sp)
80000204:	8fa9005c 	lw	t1,92(sp)
80000208:	8faa0058 	lw	t2,88(sp)
8000020c:	8fab0054 	lw	t3,84(sp)
80000210:	8fac0050 	lw	t4,80(sp)
80000214:	8fad004c 	lw	t5,76(sp)
80000218:	8fae0048 	lw	t6,72(sp)
8000021c:	8faf0044 	lw	t7,68(sp)
80000220:	8fb80040 	lw	t8,64(sp)
80000224:	8fb9003c 	lw	t9,60(sp)
80000228:	8fb00038 	lw	s0,56(sp)
8000022c:	8fb10034 	lw	s1,52(sp)
80000230:	8fb20030 	lw	s2,48(sp)
80000234:	8fb3002c 	lw	s3,44(sp)
80000238:	8fb40028 	lw	s4,40(sp)
8000023c:	8fb50024 	lw	s5,36(sp)
80000240:	8fb60020 	lw	s6,32(sp)
80000244:	8fb7001c 	lw	s7,28(sp)
80000248:	8fa40018 	lw	a0,24(sp)
8000024c:	8fa50014 	lw	a1,20(sp)
80000250:	8fa60010 	lw	a2,16(sp)
80000254:	8fa7000c 	lw	a3,12(sp)
80000258:	8fa20008 	lw	v0,8(sp)
8000025c:	8fa30004 	lw	v1,4(sp)
80000260:	8fa10000 	lw	at,0(sp)

80000264 <return1>:
80000264:	8f5b0000 	lw	k1,0(k0)
80000268:	00000000 	nop
8000026c:	03600008 	jr	k1
80000270:	42000010 	rfe

80000274 <output>:
80000274:	341a0008 	li	k0,0x8
80000278:	177a000c 	bne	k1,k0,800002ac <kernel_loop>
8000027c:	00000000 	nop
80000280:	341b0102 	li	k1,0x102
80000284:	145b0004 	bne	v0,k1,80000298 <return2>
80000288:	00000000 	nop
8000028c:	3c1affff 	lui	k0,0xffff
80000290:	375a0000 	ori	k0,k0,0x0
80000294:	a3440008 	sb	a0,8(k0)

80000298 <return2>:
80000298:	401a7000 	mfc0	k0,$14
8000029c:	00000000 	nop
800002a0:	275a0004 	addiu	k0,k0,4
800002a4:	03400008 	jr	k0
800002a8:	42000010 	rfe

800002ac <kernel_loop>:
800002ac:	1000ffff 	b	800002ac <kernel_loop>
800002b0:	00000000 	nop
